; Function Attrs: mustprogress nounwind uwtable
define hidden void @_ZNK15ClassFileParser28verify_legal_field_signatureEPK6SymbolS2_P10JavaThread(ptr noundef nonnull align 8 dereferenceable(440) %0, ptr noundef %1, ptr noundef %2, ptr noundef %3) local_unnamed_addr #1 align 2 {
  %5 = getelementptr inbounds i8, ptr %0, i64 424
  %6 = load i8, ptr %5, align 8
  %7 = trunc i8 %6 to i1
  br i1 %7, label %8, label %23

8:                                                ; preds = %4
  %9 = getelementptr inbounds i8, ptr %2, i64 6
  %10 = getelementptr inbounds i8, ptr %2, i64 4
  %11 = load i16, ptr %10, align 4
  %12 = zext i16 %11 to i32
  %13 = tail call noundef ptr @_ZNK15ClassFileParser25skip_over_field_signatureEPKcbjP10JavaThread(ptr noundef nonnull align 8 dereferenceable(440) %0, ptr noundef nonnull %9, i1 noundef zeroext false, i32 noundef %12, ptr noundef %3)
  %14 = getelementptr inbounds i8, ptr %3, i64 8
  %15 = load ptr, ptr %14, align 8
  %.not17 = icmp eq ptr %15, null
  br i1 %.not17, label %16, label %23

16:                                               ; preds = %8
  %17 = icmp ne ptr %13, null
  %18 = ptrtoint ptr %13 to i64
  %19 = ptrtoint ptr %9 to i64
  %20 = sub i64 %18, %19
  %21 = zext i16 %11 to i64
  %.not = icmp eq i64 %20, %21
  %or.cond = and i1 %17, %.not
  br i1 %or.cond, label %23, label %22

22:                                               ; preds = %16
  tail call void @_ZNK15ClassFileParser21throwIllegalSignatureEPKcPK6SymbolS4_P10JavaThread(ptr noundef nonnull align 8 dereferenceable(440) %0, ptr noundef nonnull @.str.16, ptr noundef %1, ptr noundef nonnull %2, ptr noundef nonnull %3)
  br label %23

23:                                               ; preds = %16, %22, %8, %4
  ret void
}